; Function Attrs: mustprogress nofree nounwind willreturn memory(read, inaccessiblemem: none) uwtable
define internal noundef zeroext i1 @_ZN7doctest12_GLOBAL__N_120suiteOrderComparatorEPKNS_6detail8TestCaseES4_(ptr noundef readonly captures(none) %0, ptr noundef readonly captures(none) %1) #21 {
  %3 = getelementptr inbounds nuw i8, ptr %0, i64 40
  %4 = load ptr, ptr %3, align 8, !tbaa !207
  %5 = getelementptr inbounds nuw i8, ptr %1, i64 40
  %6 = load ptr, ptr %5, align 8, !tbaa !207
  %7 = tail call i32 @strcmp(ptr noundef nonnull dereferenceable(1) %4, ptr noundef nonnull dereferenceable(1) %6) #52
  %.not = icmp eq i32 %7, 0
  br i1 %.not, label %10, label %8

8:                                                ; preds = %2
  %9 = icmp slt i32 %7, 0
  br label %_ZN7doctest12_GLOBAL__N_119fileOrderComparatorEPKNS_6detail8TestCaseES4_.exit

10:                                               ; preds = %2
  %11 = getelementptr inbounds nuw i8, ptr %1, i64 23
  %12 = load i8, ptr %11, align 1, !tbaa !38
  %13 = load ptr, ptr %1, align 8
  %14 = icmp slt i8 %12, 0
  %.0.i.i.i.i = select i1 %14, ptr %13, ptr %1
  %15 = getelementptr inbounds nuw i8, ptr %0, i64 23
  %16 = load i8, ptr %15, align 1, !tbaa !38
  %17 = load ptr, ptr %0, align 8
  %18 = icmp slt i8 %16, 0
  %.0.i.i.i.i.i = select i1 %18, ptr %17, ptr %0
  %19 = tail call i32 @strcmp(ptr noundef nonnull dereferenceable(1) %.0.i.i.i.i.i, ptr noundef nonnull readonly dereferenceable(1) %.0.i.i.i.i) #52
  %.not.i = icmp eq i32 %19, 0
  br i1 %.not.i, label %22, label %20

20:                                               ; preds = %10
  %21 = icmp slt i32 %19, 0
  br label %_ZN7doctest12_GLOBAL__N_119fileOrderComparatorEPKNS_6detail8TestCaseES4_.exit

22:                                               ; preds = %10
  %23 = getelementptr inbounds nuw i8, ptr %0, i64 24
  %24 = load i32, ptr %23, align 8, !tbaa !204
  %25 = getelementptr inbounds nuw i8, ptr %1, i64 24
  %26 = load i32, ptr %25, align 8, !tbaa !204
  %.not13.i = icmp eq i32 %24, %26
  br i1 %.not13.i, label %29, label %27

27:                                               ; preds = %22
  %28 = icmp ult i32 %24, %26
  br label %_ZN7doctest12_GLOBAL__N_119fileOrderComparatorEPKNS_6detail8TestCaseES4_.exit

29:                                               ; preds = %22
  %30 = getelementptr inbounds nuw i8, ptr %0, i64 112
  %31 = load i32, ptr %30, align 8, !tbaa !226
  %32 = getelementptr inbounds nuw i8, ptr %1, i64 112
  %33 = load i32, ptr %32, align 8, !tbaa !226
  %34 = icmp slt i32 %31, %33
  br label %_ZN7doctest12_GLOBAL__N_119fileOrderComparatorEPKNS_6detail8TestCaseES4_.exit

_ZN7doctest12_GLOBAL__N_119fileOrderComparatorEPKNS_6detail8TestCaseES4_.exit: ; preds = %29, %27, %20, %8
  %.0 = phi i1 [ %9, %8 ], [ %21, %20 ], [ %28, %27 ], [ %34, %29 ]
  ret i1 %.0
}